; Function Attrs: nounwind sspstrong uwtable
define internal i64 @num_eql(i64 noundef %0, i64 noundef %1) #2 {
  %3 = icmp eq i64 %0, 0
  %4 = and i64 %0, 7
  %5 = icmp ne i64 %4, 0
  %6 = or i1 %3, %5
  br i1 %6, label %12, label %7

7:                                                ; preds = %2
  %8 = inttoptr i64 %0 to ptr
  %9 = load i64, ptr %8, align 8, !tbaa !11
  %10 = trunc i64 %9 to i32
  %11 = and i32 %10, 31
  br label %rb_type.exit

12:                                               ; preds = %2
  %13 = tail call i64 @llvm.fshl.i64(i64 %0, i64 %0, i64 62)
  %14 = icmp ult i64 %13, 10
  br i1 %14, label %switch.hole_check, label %15

15:                                               ; preds = %switch.hole_check, %12
  %16 = and i64 %0, 1
  %.not.i = icmp eq i64 %16, 0
  br i1 %.not.i, label %17, label %rb_type.exit

17:                                               ; preds = %15
  %18 = and i64 %0, 254
  %19 = icmp eq i64 %18, 12
  %spec.select.i = select i1 %19, i32 20, i32 4
  br label %rb_type.exit

switch.hole_check:                                ; preds = %12
  %switch.maskindex = trunc nuw i64 %13 to i16
  %switch.shifted = lshr i16 547, %switch.maskindex
  %switch.lobit = trunc i16 %switch.shifted to i1
  br i1 %switch.lobit, label %switch.lookup, label %15

switch.lookup:                                    ; preds = %switch.hole_check
  %switch.gep = getelementptr inbounds nuw [10 x i32], ptr @switch.table.num_eql.2, i64 0, i64 %13
  %switch.load = load i32, ptr %switch.gep, align 4
  br label %rb_type.exit

rb_type.exit:                                     ; preds = %switch.lookup, %7, %15, %17
  %.0.i8 = phi i32 [ %11, %7 ], [ 21, %15 ], [ %spec.select.i, %17 ], [ %switch.load, %switch.lookup ]
  %20 = icmp eq i64 %1, 0
  %21 = and i64 %1, 7
  %22 = icmp ne i64 %21, 0
  %23 = or i1 %20, %22
  br i1 %23, label %29, label %24

24:                                               ; preds = %rb_type.exit
  %25 = inttoptr i64 %1 to ptr
  %26 = load i64, ptr %25, align 8, !tbaa !11
  %27 = trunc i64 %26 to i32
  %28 = and i32 %27, 31
  br label %rb_type.exit12

29:                                               ; preds = %rb_type.exit
  %30 = tail call i64 @llvm.fshl.i64(i64 %1, i64 %1, i64 62)
  %31 = icmp ult i64 %30, 10
  br i1 %31, label %switch.hole_check15, label %32

32:                                               ; preds = %switch.hole_check15, %29
  %33 = and i64 %1, 1
  %.not.i10 = icmp eq i64 %33, 0
  br i1 %.not.i10, label %34, label %rb_type.exit12

34:                                               ; preds = %32
  %35 = and i64 %1, 254
  %36 = icmp eq i64 %35, 12
  %spec.select.i11 = select i1 %36, i32 20, i32 4
  br label %rb_type.exit12

switch.hole_check15:                              ; preds = %29
  %switch.maskindex17 = trunc nuw i64 %30 to i16
  %switch.shifted18 = lshr i16 547, %switch.maskindex17
  %switch.lobit19 = trunc i16 %switch.shifted18 to i1
  br i1 %switch.lobit19, label %switch.lookup16, label %32

switch.lookup16:                                  ; preds = %switch.hole_check15
  %switch.gep20 = getelementptr inbounds nuw [10 x i32], ptr @switch.table.num_eql.2, i64 0, i64 %30
  %switch.load21 = load i32, ptr %switch.gep20, align 4
  br label %rb_type.exit12

rb_type.exit12:                                   ; preds = %switch.lookup16, %24, %32, %34
  %.0.i9 = phi i32 [ %28, %24 ], [ 21, %32 ], [ %spec.select.i11, %34 ], [ %switch.load21, %switch.lookup16 ]
  %.not = icmp eq i32 %.0.i8, %.0.i9
  br i1 %.not, label %37, label %45

37:                                               ; preds = %rb_type.exit12
  br i1 %6, label %rbimpl_RB_TYPE_P_fastpath.exit.thread, label %rbimpl_RB_TYPE_P_fastpath.exit

rbimpl_RB_TYPE_P_fastpath.exit:                   ; preds = %37
  %38 = inttoptr i64 %0 to ptr
  %39 = load i64, ptr %38, align 8, !tbaa !11
  %40 = and i64 %39, 31
  %41 = icmp eq i64 %40, 10
  br i1 %41, label %42, label %rbimpl_RB_TYPE_P_fastpath.exit.thread

42:                                               ; preds = %rbimpl_RB_TYPE_P_fastpath.exit
  %43 = tail call i64 @rb_big_eql(i64 noundef %0, i64 noundef %1) #26
  br label %45

rbimpl_RB_TYPE_P_fastpath.exit.thread:            ; preds = %37, %rbimpl_RB_TYPE_P_fastpath.exit
  %44 = tail call i64 @rb_equal(i64 noundef %0, i64 noundef %1) #26
  br label %45

45:                                               ; preds = %rb_type.exit12, %rbimpl_RB_TYPE_P_fastpath.exit.thread, %42
  %.0 = phi i64 [ %43, %42 ], [ %44, %rbimpl_RB_TYPE_P_fastpath.exit.thread ], [ 0, %rb_type.exit12 ]
  ret i64 %.0
}